; Function Attrs: mustprogress uwtable
define void @_Z12SetExtraInfoP11CommandDataR7ArchivePw(ptr noundef readonly captures(none) %0, ptr noundef nonnull align 8 dereferenceable(57108) %1, ptr noundef %2) local_unnamed_addr #0 {
  %4 = getelementptr inbounds nuw i8, ptr %0, i64 58617
  %5 = load i8, ptr %4, align 1, !tbaa !91, !range !32, !noundef !33
  %6 = trunc nuw i8 %5 to i1
  br i1 %6, label %19, label %7

7:                                                ; preds = %3
  %8 = getelementptr inbounds nuw i8, ptr %0, i64 57488
  %9 = load i8, ptr %8, align 8, !tbaa !92, !range !32, !noundef !33
  %10 = trunc nuw i8 %9 to i1
  %11 = getelementptr inbounds nuw i8, ptr %1, i64 48840
  %12 = load i32, ptr %11, align 8
  %13 = icmp eq i32 %12, 2
  %or.cond = select i1 %10, i1 %13, i1 false
  br i1 %or.cond, label %14, label %19

14:                                               ; preds = %7
  %15 = getelementptr inbounds nuw i8, ptr %1, i64 31264
  %16 = tail call i32 @wcscmp(ptr noundef nonnull %15, ptr noundef nonnull @.str) #14
  %17 = icmp eq i32 %16, 0
  br i1 %17, label %18, label %19

18:                                               ; preds = %14
  tail call void @_Z18ExtractUnixOwner30R7ArchivePKw(ptr noundef nonnull align 8 dereferenceable(57108) %1, ptr noundef %2)
  br label %19

19:                                               ; preds = %18, %14, %7, %3
  ret void
}